target datalayout = "e-m:e-p270:32:32-p271:32:32-p272:64:64-i64:64-i128:128-f80:128-n8:16:32:64-S128"
target triple = "x86_64-pc-linux-gnu"

%class.anon.13 = type { ptr }

; Function Attrs: mustprogress nounwind uwtable
define hidden noundef ptr @_ZN4llvm16InstCombinerImpl16foldSelectIntoOpERNS_10SelectInstEPNS_5ValueES4_(ptr noundef nonnull align 8 dereferenceable(1088) %0, ptr noundef nonnull align 8 dereferenceable(72) %1, ptr noundef %2, ptr noundef %3) #0 align 2 {
  %5 = alloca ptr, align 8
  %6 = alloca ptr, align 8
  %7 = alloca ptr, align 8
  %8 = alloca ptr, align 8
  %9 = alloca ptr, align 8
  %10 = alloca %class.anon.13, align 8
  %11 = alloca ptr, align 8
  %12 = alloca ptr, align 8
  store ptr %0, ptr %6, align 8
  store ptr %1, ptr %7, align 8
  store ptr %2, ptr %8, align 8
  store ptr %3, ptr %9, align 8
  %13 = load ptr, ptr %6, align 8
  %14 = getelementptr inbounds nuw %class.anon.13, ptr %10, i32 0, i32 0
  store ptr %13, ptr %14, align 8
  %15 = load ptr, ptr %7, align 8
  %16 = load ptr, ptr %8, align 8
  %17 = load ptr, ptr %9, align 8
  %18 = call noundef ptr @"_ZZN4llvm16InstCombinerImpl16foldSelectIntoOpERNS_10SelectInstEPNS_5ValueES4_ENK3$_0clES2_S4_S4_b"(ptr noundef nonnull align 8 dereferenceable(8) %10, ptr noundef nonnull align 8 dereferenceable(72) %15, ptr noundef %16, ptr noundef %17, i1 noundef zeroext false)
  store ptr %18, ptr %11, align 8
  %19 = load ptr, ptr %11, align 8
  %20 = icmp ne ptr %19, null
  br i1 %20, label %21, label %23

21:                                               ; preds = %4
  %22 = load ptr, ptr %11, align 8
  store ptr %22, ptr %5, align 8
  br label %33

23:                                               ; preds = %4
  %24 = load ptr, ptr %7, align 8
  %25 = load ptr, ptr %9, align 8
  %26 = load ptr, ptr %8, align 8
  %27 = call noundef ptr @"_ZZN4llvm16InstCombinerImpl16foldSelectIntoOpERNS_10SelectInstEPNS_5ValueES4_ENK3$_0clES2_S4_S4_b"(ptr noundef nonnull align 8 dereferenceable(8) %10, ptr noundef nonnull align 8 dereferenceable(72) %24, ptr noundef %25, ptr noundef %26, i1 noundef zeroext true)
  store ptr %27, ptr %12, align 8
  %28 = load ptr, ptr %12, align 8
  %29 = icmp ne ptr %28, null
  br i1 %29, label %30, label %32

30:                                               ; preds = %23
  %31 = load ptr, ptr %12, align 8
  store ptr %31, ptr %5, align 8
  br label %33

32:                                               ; preds = %23
  store ptr null, ptr %5, align 8
  br label %33

33:                                               ; preds = %32, %30, %21
  %34 = load ptr, ptr %5, align 8
  ret ptr %34
}