; Function Attrs: mustprogress nounwind uwtable
define hidden noundef ptr @_ZN4llvm16InstCombinerImpl16foldSelectIntoOpERNS_10SelectInstEPNS_5ValueES4_(ptr nocapture noundef nonnull readonly align 8 dereferenceable(1088) %0, ptr noundef nonnull align 8 dereferenceable(72) %1, ptr noundef %2, ptr noundef %3) local_unnamed_addr #0 align 2 {
  %5 = tail call fastcc noundef ptr @"_ZZN4llvm16InstCombinerImpl16foldSelectIntoOpERNS_10SelectInstEPNS_5ValueES4_ENK3$_0clES2_S4_S4_b"(ptr nonnull %0, ptr noundef nonnull align 8 dereferenceable(72) %1, ptr noundef %2, ptr noundef %3, i1 noundef zeroext false)
  %.not = icmp eq ptr %5, null
  br i1 %.not, label %6, label %8

6:                                                ; preds = %4
  %7 = tail call fastcc noundef ptr @"_ZZN4llvm16InstCombinerImpl16foldSelectIntoOpERNS_10SelectInstEPNS_5ValueES4_ENK3$_0clES2_S4_S4_b"(ptr nonnull %0, ptr noundef nonnull align 8 dereferenceable(72) %1, ptr noundef %3, ptr noundef %2, i1 noundef zeroext true)
  br label %8

8:                                                ; preds = %6, %4
  %.0 = phi ptr [ %5, %4 ], [ %7, %6 ]
  ret ptr %.0
}